; Function Attrs: nounwind uwtable
define ptr @Gia_ManAigSynch2Choices(ptr noundef %0, ptr noundef %1, ptr noundef %2, ptr noundef %3) local_unnamed_addr #0 {
  %5 = tail call noalias dereferenceable_or_null(16) ptr @malloc(i64 noundef 16) #14
  %6 = getelementptr inbounds nuw i8, ptr %5, i64 4
  store i32 0, ptr %6, align 4
  store i32 8, ptr %5, align 8
  %7 = tail call noalias dereferenceable_or_null(64) ptr @malloc(i64 noundef 64) #14
  %8 = getelementptr inbounds nuw i8, ptr %5, i64 8
  store ptr %7, ptr %8, align 8
  %.not = icmp eq ptr %2, null
  br i1 %.not, label %9, label %Vec_PtrPush.exit

Vec_PtrPush.exit:                                 ; preds = %4
  store i32 1, ptr %6, align 4
  store ptr %2, ptr %7, align 8
  br label %9

9:                                                ; preds = %Vec_PtrPush.exit, %4
  %10 = phi i32 [ 1, %Vec_PtrPush.exit ], [ 0, %4 ]
  %.not27 = icmp eq ptr %1, null
  br i1 %.not27, label %14, label %Vec_PtrPush.exit35

Vec_PtrPush.exit35:                               ; preds = %9
  %11 = add nuw nsw i32 %10, 1
  store i32 %11, ptr %6, align 4
  %12 = zext nneg i32 %10 to i64
  %13 = getelementptr inbounds nuw ptr, ptr %7, i64 %12
  store ptr %1, ptr %13, align 8
  br label %14

14:                                               ; preds = %Vec_PtrPush.exit35, %9
  %15 = phi i32 [ %11, %Vec_PtrPush.exit35 ], [ %10, %9 ]
  %.not28 = icmp eq ptr %0, null
  br i1 %.not28, label %19, label %Vec_PtrPush.exit42

Vec_PtrPush.exit42:                               ; preds = %14
  %16 = add nuw nsw i32 %15, 1
  store i32 %16, ptr %6, align 4
  %17 = zext nneg i32 %15 to i64
  %18 = getelementptr inbounds nuw ptr, ptr %7, i64 %17
  store ptr %0, ptr %18, align 8
  br label %19

19:                                               ; preds = %Vec_PtrPush.exit42, %14
  %20 = tail call ptr @Gia_ManChoiceMiter(ptr noundef nonnull %5) #15
  %21 = load ptr, ptr %8, align 8
  %.not.i = icmp eq ptr %21, null
  br i1 %.not.i, label %Vec_PtrFree.exit, label %22

22:                                               ; preds = %19
  tail call void @free(ptr noundef nonnull %21) #15
  br label %Vec_PtrFree.exit

Vec_PtrFree.exit:                                 ; preds = %19, %22
  tail call void @free(ptr noundef nonnull %5) #15
  %23 = tail call ptr @Gia_ManToAigSkip(ptr noundef %20, i32 noundef 3) #15
  tail call void @Gia_ManStop(ptr noundef %20) #15
  %24 = tail call ptr @Dch_ComputeChoices(ptr noundef %23, ptr noundef %3) #15
  tail call void @Aig_ManStop(ptr noundef %23) #15
  %25 = tail call ptr @Gia_ManOrderPios(ptr noundef %24, ptr noundef %0)
  %26 = tail call ptr @Aig_ManDupDfsGuided(ptr noundef %24, ptr noundef %25) #15
  tail call void @Aig_ManStop(ptr noundef %24) #15
  %27 = getelementptr inbounds nuw i8, ptr %25, i64 8
  %28 = load ptr, ptr %27, align 8
  %.not.i43 = icmp eq ptr %28, null
  br i1 %.not.i43, label %Vec_PtrFree.exit44, label %29

29:                                               ; preds = %Vec_PtrFree.exit
  tail call void @free(ptr noundef nonnull %28) #15
  br label %Vec_PtrFree.exit44

Vec_PtrFree.exit44:                               ; preds = %Vec_PtrFree.exit, %29
  tail call void @free(ptr noundef nonnull %25) #15
  %30 = tail call ptr @Gia_ManFromAigChoices(ptr noundef %26) #15
  tail call void @Aig_ManStop(ptr noundef %26) #15
  ret ptr %30
}